; Function Attrs: mustprogress uwtable
define void @cvStartReadChainPoints(ptr noundef %0, ptr noundef %1) local_unnamed_addr #0 personality ptr @__gxx_personality_v0 {
  %3 = alloca %"class.std::__cxx11::basic_string", align 8
  %4 = alloca %"class.std::allocator", align 1
  %5 = alloca %"class.std::__cxx11::basic_string", align 8
  %6 = alloca %"class.std::allocator", align 1
  %7 = icmp ne ptr %0, null
  %8 = icmp ne ptr %1, null
  %or.cond = and i1 %7, %8
  br i1 %or.cond, label %22, label %9

9:                                                ; preds = %2
  call void @llvm.lifetime.start.p0(i64 32, ptr nonnull %3) #17
  call void @llvm.lifetime.start.p0(i64 1, ptr nonnull %4) #17
  invoke void @_ZNSt7__cxx1112basic_stringIcSt11char_traitsIcESaIcEEC2EPKcRKS3_(ptr noundef nonnull align 8 dereferenceable(32) %3, ptr noundef nonnull @.str, ptr noundef nonnull align 1 dereferenceable(1) %4)
          to label %10 unwind label %12

10:                                               ; preds = %9
  invoke void @_ZN2cv5errorEiRKNSt7__cxx1112basic_stringIcSt11char_traitsIcESaIcEEEPKcS9_i(i32 noundef -27, ptr noundef nonnull align 8 dereferenceable(32) %3, ptr noundef nonnull @__func__.cvStartReadChainPoints, ptr noundef nonnull @.str.1, i32 noundef 63) #18
          to label %11 unwind label %14

11:                                               ; preds = %10
  unreachable

12:                                               ; preds = %9
  %13 = landingpad { ptr, i32 }
          cleanup
  br label %_ZNSt7__cxx1112basic_stringIcSt11char_traitsIcESaIcEED2Ev.exit

14:                                               ; preds = %10
  %15 = landingpad { ptr, i32 }
          cleanup
  %16 = load ptr, ptr %3, align 8, !tbaa !3
  %17 = getelementptr inbounds nuw i8, ptr %3, i64 16
  %18 = icmp eq ptr %16, %17
  br i1 %18, label %_ZNKSt7__cxx1112basic_stringIcSt11char_traitsIcESaIcEE11_M_is_localEv.exit.thread.i.i, label %_ZNKSt7__cxx1112basic_stringIcSt11char_traitsIcESaIcEE11_M_is_localEv.exit.i.i

_ZNKSt7__cxx1112basic_stringIcSt11char_traitsIcESaIcEE11_M_is_localEv.exit.thread.i.i: ; preds = %14
  %19 = getelementptr inbounds nuw i8, ptr %3, i64 8
  %20 = load i64, ptr %19, align 8, !tbaa !11
  %21 = icmp ult i64 %20, 16
  call void @llvm.assume(i1 %21)
  br label %_ZNSt7__cxx1112basic_stringIcSt11char_traitsIcESaIcEED2Ev.exit

_ZNKSt7__cxx1112basic_stringIcSt11char_traitsIcESaIcEE11_M_is_localEv.exit.i.i: ; preds = %14
  call void @_ZdlPv(ptr noundef %16) #19
  br label %_ZNSt7__cxx1112basic_stringIcSt11char_traitsIcESaIcEED2Ev.exit

_ZNSt7__cxx1112basic_stringIcSt11char_traitsIcESaIcEED2Ev.exit: ; preds = %_ZNKSt7__cxx1112basic_stringIcSt11char_traitsIcESaIcEE11_M_is_localEv.exit.i.i, %_ZNKSt7__cxx1112basic_stringIcSt11char_traitsIcESaIcEE11_M_is_localEv.exit.thread.i.i, %12
  %.pn = phi { ptr, i32 } [ %13, %12 ], [ %15, %_ZNKSt7__cxx1112basic_stringIcSt11char_traitsIcESaIcEE11_M_is_localEv.exit.thread.i.i ], [ %15, %_ZNKSt7__cxx1112basic_stringIcSt11char_traitsIcESaIcEE11_M_is_localEv.exit.i.i ]
  call void @llvm.lifetime.end.p0(i64 1, ptr nonnull %4) #17
  call void @llvm.lifetime.end.p0(i64 32, ptr nonnull %3) #17
  br label %57

22:                                               ; preds = %2
  %23 = getelementptr inbounds nuw i8, ptr %0, i64 44
  %24 = load i32, ptr %23, align 4, !tbaa !12
  %.not = icmp eq i32 %24, 1
  br i1 %.not, label %25, label %29

25:                                               ; preds = %22
  %26 = getelementptr inbounds nuw i8, ptr %0, i64 4
  %27 = load i32, ptr %26, align 4, !tbaa !19
  %28 = icmp slt i32 %27, 104
  br i1 %28, label %29, label %42

29:                                               ; preds = %25, %22
  call void @llvm.lifetime.start.p0(i64 32, ptr nonnull %5) #17
  call void @llvm.lifetime.start.p0(i64 1, ptr nonnull %6) #17
  invoke void @_ZNSt7__cxx1112basic_stringIcSt11char_traitsIcESaIcEEC2EPKcRKS3_(ptr noundef nonnull align 8 dereferenceable(32) %5, ptr noundef nonnull @.str, ptr noundef nonnull align 1 dereferenceable(1) %6)
          to label %30 unwind label %32

30:                                               ; preds = %29
  invoke void @_ZN2cv5errorEiRKNSt7__cxx1112basic_stringIcSt11char_traitsIcESaIcEEEPKcS9_i(i32 noundef -201, ptr noundef nonnull align 8 dereferenceable(32) %5, ptr noundef nonnull @__func__.cvStartReadChainPoints, ptr noundef nonnull @.str.1, i32 noundef 66) #18
          to label %31 unwind label %34

31:                                               ; preds = %30
  unreachable

32:                                               ; preds = %29
  %33 = landingpad { ptr, i32 }
          cleanup
  br label %_ZNSt7__cxx1112basic_stringIcSt11char_traitsIcESaIcEED2Ev.exit30

34:                                               ; preds = %30
  %35 = landingpad { ptr, i32 }
          cleanup
  %36 = load ptr, ptr %5, align 8, !tbaa !3
  %37 = getelementptr inbounds nuw i8, ptr %5, i64 16
  %38 = icmp eq ptr %36, %37
  br i1 %38, label %_ZNKSt7__cxx1112basic_stringIcSt11char_traitsIcESaIcEE11_M_is_localEv.exit.thread.i.i29, label %_ZNKSt7__cxx1112basic_stringIcSt11char_traitsIcESaIcEE11_M_is_localEv.exit.i.i28

_ZNKSt7__cxx1112basic_stringIcSt11char_traitsIcESaIcEE11_M_is_localEv.exit.thread.i.i29: ; preds = %34
  %39 = getelementptr inbounds nuw i8, ptr %5, i64 8
  %40 = load i64, ptr %39, align 8, !tbaa !11
  %41 = icmp ult i64 %40, 16
  call void @llvm.assume(i1 %41)
  br label %_ZNSt7__cxx1112basic_stringIcSt11char_traitsIcESaIcEED2Ev.exit30

_ZNKSt7__cxx1112basic_stringIcSt11char_traitsIcESaIcEE11_M_is_localEv.exit.i.i28: ; preds = %34
  call void @_ZdlPv(ptr noundef %36) #19
  br label %_ZNSt7__cxx1112basic_stringIcSt11char_traitsIcESaIcEED2Ev.exit30

_ZNSt7__cxx1112basic_stringIcSt11char_traitsIcESaIcEED2Ev.exit30: ; preds = %_ZNKSt7__cxx1112basic_stringIcSt11char_traitsIcESaIcEE11_M_is_localEv.exit.i.i28, %_ZNKSt7__cxx1112basic_stringIcSt11char_traitsIcESaIcEE11_M_is_localEv.exit.thread.i.i29, %32
  %.pn25 = phi { ptr, i32 } [ %33, %32 ], [ %35, %_ZNKSt7__cxx1112basic_stringIcSt11char_traitsIcESaIcEE11_M_is_localEv.exit.thread.i.i29 ], [ %35, %_ZNKSt7__cxx1112basic_stringIcSt11char_traitsIcESaIcEE11_M_is_localEv.exit.i.i28 ]
  call void @llvm.lifetime.end.p0(i64 1, ptr nonnull %6) #17
  call void @llvm.lifetime.end.p0(i64 32, ptr nonnull %5) #17
  br label %57

42:                                               ; preds = %25
  tail call void @cvStartReadSeq(ptr noundef nonnull %0, ptr noundef nonnull %1, i32 noundef 0)
  %43 = getelementptr inbounds nuw i8, ptr %0, i64 96
  %44 = getelementptr inbounds nuw i8, ptr %1, i64 68
  %45 = load i64, ptr %43, align 8
  store i64 %45, ptr %44, align 4
  %46 = getelementptr inbounds nuw i8, ptr %1, i64 76
  br label %47

47:                                               ; preds = %42, %47
  %indvars.iv = phi i64 [ 0, %42 ], [ %indvars.iv.next, %47 ]
  %48 = getelementptr inbounds nuw [8 x %struct.CvPoint], ptr @_ZL13icvCodeDeltas, i64 0, i64 %indvars.iv
  %49 = load i32, ptr %48, align 8, !tbaa !20
  %50 = trunc i32 %49 to i8
  %51 = getelementptr inbounds nuw [8 x [2 x i8]], ptr %46, i64 0, i64 %indvars.iv
  store i8 %50, ptr %51, align 2, !tbaa !21
  %52 = getelementptr inbounds nuw i8, ptr %48, i64 4
  %53 = load i32, ptr %52, align 4, !tbaa !22
  %54 = trunc i32 %53 to i8
  %55 = getelementptr inbounds nuw i8, ptr %51, i64 1
  store i8 %54, ptr %55, align 1, !tbaa !21
  %indvars.iv.next = add nuw nsw i64 %indvars.iv, 1
  %exitcond.not = icmp eq i64 %indvars.iv.next, 8
  br i1 %exitcond.not, label %56, label %47, !llvm.loop !23

56:                                               ; preds = %47
  ret void

57:                                               ; preds = %_ZNSt7__cxx1112basic_stringIcSt11char_traitsIcESaIcEED2Ev.exit30, %_ZNSt7__cxx1112basic_stringIcSt11char_traitsIcESaIcEED2Ev.exit
  %.pn25.pn = phi { ptr, i32 } [ %.pn25, %_ZNSt7__cxx1112basic_stringIcSt11char_traitsIcESaIcEED2Ev.exit30 ], [ %.pn, %_ZNSt7__cxx1112basic_stringIcSt11char_traitsIcESaIcEED2Ev.exit ]
  resume { ptr, i32 } %.pn25.pn
}